target datalayout = "e-m:e-p270:32:32-p271:32:32-p272:64:64-i64:64-i128:128-f80:128-n8:16:32:64-S128"
target triple = "x86_64-pc-linux-gnu"

%union.pthread_cond_t = type { %struct.__pthread_cond_s }
%struct.__pthread_cond_s = type { %union.__atomic_wide_counter, %union.__atomic_wide_counter, [2 x i32], [2 x i32], i32, i32, [2 x i32] }
%union.__atomic_wide_counter = type { i64 }
%union.pthread_mutex_t = type { %struct.__pthread_mutex_s }
%struct.__pthread_mutex_s = type { i32, i32, i32, i32, i32, i16, i16, %struct.__pthread_internal_list }
%struct.__pthread_internal_list = type { ptr, ptr }
%struct.cpu_set_t = type { [16 x i64] }
%struct.slurmd_config = type { ptr, ptr, i32, [4096 x i8], ptr, ptr, ptr, ptr, i16, i16, i16, i16, ptr, i16, i64, i16, i16, i16, i16, i16, i16, i16, i16, i16, i16, i16, i64, i64, i32, i32, i16, ptr, ptr, ptr, i32, ptr, ptr, ptr, ptr, ptr, ptr, ptr, ptr, ptr, ptr, i32, ptr, ptr, i16, i32, i32, %struct.log_options_t, i32, i16, i64, i8, i8, i8, i8, i8, %union.pthread_mutex_t, i16, ptr, %union.pthread_cond_t, ptr, %union.pthread_cond_t, i8, i8, ptr, ptr }
%struct.log_options_t = type { i32, i32, i32, i8, i8, i8, i32 }

@plugin_type = external constant [0 x i8], align 1
@.str.6 = private unnamed_addr constant [32 x i8] c"%s: %s: binding to NUMA node %d\00", align 1
@__func__._bind_ldom = private unnamed_addr constant [11 x i8] c"_bind_ldom\00", align 1
@conf = external global ptr, align 8

; Function Attrs: nounwind uwtable
define internal i32 @_bind_ldom(i32 noundef %0, ptr noundef %1) #0 {
  %3 = alloca i32, align 4
  %4 = alloca ptr, align 8
  %5 = alloca i32, align 4
  %6 = alloca i32, align 4
  %7 = alloca i32, align 4
  %8 = alloca i32, align 4
  %9 = alloca i64, align 8
  %10 = alloca i64, align 8
  store i32 %0, ptr %3, align 4
  store ptr %1, ptr %4, align 8
  call void @llvm.lifetime.start.p0(i64 4, ptr %5) #6
  call void @llvm.lifetime.start.p0(i64 4, ptr %6) #6
  call void @llvm.lifetime.start.p0(i64 4, ptr %7) #6
  store i32 0, ptr %7, align 4
  call void @llvm.lifetime.start.p0(i64 4, ptr %8) #6
  %11 = call i32 @numa_max_node()
  store i32 %11, ptr %8, align 4
  %12 = load i32, ptr %8, align 4
  %13 = icmp sgt i32 %12, 0
  br i1 %13, label %14, label %19

14:                                               ; preds = %2
  %15 = load i32, ptr %3, align 4
  %16 = load i32, ptr %8, align 4
  %17 = add nsw i32 %16, 1
  %18 = urem i32 %15, %17
  store i32 %18, ptr %7, align 4
  br label %19

19:                                               ; preds = %14, %2
  br label %20

20:                                               ; preds = %19
  br label %21

21:                                               ; preds = %20
  %22 = call i32 @slurm_get_log_level()
  %23 = icmp sge i32 %22, 7
  br i1 %23, label %24, label %26

24:                                               ; preds = %21
  %25 = load i32, ptr %7, align 4
  call void (i32, ptr, ...) @slurm_log_var(i32 noundef 7, ptr noundef @.str.6, ptr noundef @plugin_type, ptr noundef @__func__._bind_ldom, i32 noundef %25)
  br label %26

26:                                               ; preds = %24, %21
  br label %27

27:                                               ; preds = %26
  br label %28

28:                                               ; preds = %27
  br label %29

29:                                               ; preds = %28
  br label %30

30:                                               ; preds = %29
  %31 = load ptr, ptr @conf, align 8
  %32 = getelementptr inbounds nuw %struct.slurmd_config, ptr %31, i32 0, i32 10
  %33 = load i16, ptr %32, align 4
  %34 = zext i16 %33 to i32
  %35 = load ptr, ptr @conf, align 8
  %36 = getelementptr inbounds nuw %struct.slurmd_config, ptr %35, i32 0, i32 15
  %37 = load i16, ptr %36, align 8
  %38 = zext i16 %37 to i32
  %39 = mul nsw i32 %34, %38
  %40 = load ptr, ptr @conf, align 8
  %41 = getelementptr inbounds nuw %struct.slurmd_config, ptr %40, i32 0, i32 11
  %42 = load i16, ptr %41, align 2
  %43 = zext i16 %42 to i32
  %44 = mul nsw i32 %39, %43
  store i32 %44, ptr %6, align 4
  store i32 0, ptr %5, align 4
  br label %45

45:                                               ; preds = %78, %30
  %46 = load i32, ptr %5, align 4
  %47 = load i32, ptr %6, align 4
  %48 = icmp slt i32 %46, %47
  br i1 %48, label %49, label %81

49:                                               ; preds = %45
  %50 = load i32, ptr %5, align 4
  %51 = trunc i32 %50 to i16
  %52 = call zeroext i16 @slurm_get_numa_node(i16 noundef zeroext %51)
  %53 = zext i16 %52 to i32
  %54 = load i32, ptr %7, align 4
  %55 = icmp eq i32 %53, %54
  br i1 %55, label %56, label %77

56:                                               ; preds = %49
  call void @llvm.lifetime.start.p0(i64 8, ptr %9) #6
  %57 = load i32, ptr %5, align 4
  %58 = sext i32 %57 to i64
  store i64 %58, ptr %9, align 8
  %59 = load i64, ptr %9, align 8
  %60 = udiv i64 %59, 8
  %61 = icmp ult i64 %60, 128
  br i1 %61, label %62, label %74

62:                                               ; preds = %56
  %63 = load i64, ptr %9, align 8
  %64 = urem i64 %63, 64
  %65 = shl i64 1, %64
  %66 = load ptr, ptr %4, align 8
  %67 = getelementptr inbounds nuw %struct.cpu_set_t, ptr %66, i32 0, i32 0
  %68 = getelementptr inbounds [16 x i64], ptr %67, i64 0, i64 0
  %69 = load i64, ptr %9, align 8
  %70 = udiv i64 %69, 64
  %71 = getelementptr inbounds nuw i64, ptr %68, i64 %70
  %72 = load i64, ptr %71, align 8
  %73 = or i64 %72, %65
  store i64 %73, ptr %71, align 8
  br label %75

74:                                               ; preds = %56
  br label %75

75:                                               ; preds = %74, %62
  %76 = phi i64 [ %73, %62 ], [ 0, %74 ]
  store i64 %76, ptr %10, align 8
  call void @llvm.lifetime.end.p0(i64 8, ptr %9) #6
  br label %77

77:                                               ; preds = %75, %49
  br label %78

78:                                               ; preds = %77
  %79 = load i32, ptr %5, align 4
  %80 = add nsw i32 %79, 1
  store i32 %80, ptr %5, align 4
  br label %45, !llvm.loop !14

81:                                               ; preds = %45
  call void @llvm.lifetime.end.p0(i64 4, ptr %8) #6
  call void @llvm.lifetime.end.p0(i64 4, ptr %7) #6
  call void @llvm.lifetime.end.p0(i64 4, ptr %6) #6
  call void @llvm.lifetime.end.p0(i64 4, ptr %5) #6
  ret i32 1
}