; Function Attrs: nounwind uwtable
define internal fastcc void @_bind_ldom(i32 noundef %0, ptr noundef captures(none) %1) unnamed_addr #0 {
  %3 = tail call i32 @numa_max_node() #7
  %4 = icmp sgt i32 %3, 0
  br i1 %4, label %5, label %8

5:                                                ; preds = %2
  %6 = add nuw nsw i32 %3, 1
  %7 = urem i32 %0, %6
  br label %8

8:                                                ; preds = %5, %2
  %.013 = phi i32 [ %7, %5 ], [ 0, %2 ]
  %9 = tail call i32 @slurm_get_log_level() #7
  %10 = icmp sgt i32 %9, 6
  br i1 %10, label %11, label %12

11:                                               ; preds = %8
  tail call void (i32, ptr, ...) @slurm_log_var(i32 noundef 7, ptr noundef nonnull @.str.6, ptr noundef nonnull @plugin_type, ptr noundef nonnull @__func__._bind_ldom, i32 noundef %.013) #7
  br label %12

12:                                               ; preds = %11, %8
  %13 = load ptr, ptr @conf, align 8
  %14 = getelementptr inbounds nuw i8, ptr %13, i64 4156
  %15 = load i16, ptr %14, align 4
  %16 = zext i16 %15 to i32
  %17 = getelementptr inbounds nuw i8, ptr %13, i64 4184
  %18 = load i16, ptr %17, align 8
  %19 = zext i16 %18 to i32
  %20 = mul nuw nsw i32 %19, %16
  %21 = getelementptr inbounds nuw i8, ptr %13, i64 4158
  %22 = load i16, ptr %21, align 2
  %23 = zext i16 %22 to i32
  %24 = mul nuw nsw i32 %20, %23
  %.not = icmp eq i32 %24, 0
  br i1 %.not, label %._crit_edge, label %.lr.ph.preheader

.lr.ph.preheader:                                 ; preds = %12
  %wide.trip.count = zext nneg i32 %24 to i64
  br label %.lr.ph

.lr.ph:                                           ; preds = %.lr.ph.preheader, %37
  %indvars.iv = phi i64 [ 0, %.lr.ph.preheader ], [ %indvars.iv.next, %37 ]
  %25 = trunc i64 %indvars.iv to i16
  %26 = tail call zeroext i16 @slurm_get_numa_node(i16 noundef zeroext %25) #7
  %27 = zext i16 %26 to i32
  %28 = icmp eq i32 %.013, %27
  %29 = icmp samesign ult i64 %indvars.iv, 1024
  %or.cond = select i1 %28, i1 %29, i1 false
  br i1 %or.cond, label %30, label %37

30:                                               ; preds = %.lr.ph
  %31 = and i64 %indvars.iv, 63
  %32 = shl nuw i64 1, %31
  %33 = lshr i64 %indvars.iv, 6
  %34 = getelementptr inbounds nuw i64, ptr %1, i64 %33
  %35 = load i64, ptr %34, align 8
  %36 = or i64 %35, %32
  store i64 %36, ptr %34, align 8
  br label %37

37:                                               ; preds = %30, %.lr.ph
  %indvars.iv.next = add nuw nsw i64 %indvars.iv, 1
  %exitcond.not = icmp eq i64 %indvars.iv.next, %wide.trip.count
  br i1 %exitcond.not, label %._crit_edge, label %.lr.ph, !llvm.loop !14

._crit_edge:                                      ; preds = %37, %12
  ret void
}